; Function Attrs: mustprogress uwtable
define hidden void @_ZN6google8protobuf2io16CodedInputStream28BackUpInputToCurrentPositionEv(ptr noundef nonnull align 8 captures(none) dereferenceable(80) %0) local_unnamed_addr #4 align 2 {
  %2 = getelementptr inbounds nuw i8, ptr %0, i64 8
  %3 = load ptr, ptr %2, align 8, !tbaa !14
  %4 = load ptr, ptr %0, align 8, !tbaa !15
  %5 = ptrtoint ptr %3 to i64
  %6 = ptrtoint ptr %4 to i64
  %7 = sub i64 %5, %6
  %8 = trunc i64 %7 to i32
  %9 = getelementptr inbounds nuw i8, ptr %0, i64 44
  %10 = load i32, ptr %9, align 4, !tbaa !16
  %11 = getelementptr inbounds nuw i8, ptr %0, i64 28
  %12 = load i32, ptr %11, align 4, !tbaa !17
  %13 = add i32 %12, %10
  %14 = add i32 %13, %8
  %15 = icmp sgt i32 %14, 0
  br i1 %15, label %16, label %30

16:                                               ; preds = %1
  %17 = getelementptr inbounds nuw i8, ptr %0, i64 16
  %18 = load ptr, ptr %17, align 8, !tbaa !3
  %19 = load ptr, ptr %18, align 8, !tbaa !18
  %20 = getelementptr inbounds nuw i8, ptr %19, i64 24
  %21 = load ptr, ptr %20, align 8
  tail call void %21(ptr noundef nonnull align 8 dereferenceable(8) %18, i32 noundef %14)
  %22 = load ptr, ptr %2, align 8, !tbaa !14
  %23 = load ptr, ptr %0, align 8, !tbaa !15
  %24 = ptrtoint ptr %22 to i64
  %25 = ptrtoint ptr %23 to i64
  %.neg4 = sub i64 %25, %24
  %.neg5 = trunc i64 %.neg4 to i32
  %26 = load i32, ptr %9, align 4, !tbaa !16
  %27 = getelementptr inbounds nuw i8, ptr %0, i64 24
  %28 = load i32, ptr %27, align 8, !tbaa !20
  %.neg3 = sub i32 %28, %26
  %29 = add i32 %.neg3, %.neg5
  store i32 %29, ptr %27, align 8, !tbaa !20
  store ptr %23, ptr %2, align 8, !tbaa !14
  store i32 0, ptr %9, align 4, !tbaa !16
  store i32 0, ptr %11, align 4, !tbaa !17
  br label %30

30:                                               ; preds = %16, %1
  ret void
}